; Function Attrs: nounwind uwtable
define float @slamch_(ptr noundef %0) local_unnamed_addr #0 {
  %2 = alloca i32, align 4
  %3 = alloca i32, align 4
  %4 = alloca i32, align 4
  %5 = alloca i32, align 4
  %6 = alloca i32, align 4
  call void @llvm.lifetime.start.p0(i64 4, ptr nonnull %2) #8
  call void @llvm.lifetime.start.p0(i64 4, ptr nonnull %3) #8
  call void @llvm.lifetime.start.p0(i64 4, ptr nonnull %4) #8
  call void @llvm.lifetime.start.p0(i64 4, ptr nonnull %5) #8
  call void @llvm.lifetime.start.p0(i64 4, ptr nonnull %6) #8
  %.b = load i1, ptr @slamch_.first, align 4
  br i1 %.b, label %49, label %7

7:                                                ; preds = %1
  %8 = call i32 @slamc2_(ptr noundef nonnull %2, ptr noundef nonnull %6, ptr noundef nonnull %5, ptr noundef nonnull @slamch_.eps, ptr noundef nonnull %3, ptr noundef nonnull @slamch_.rmin, ptr noundef nonnull %4, ptr noundef nonnull @slamch_.rmax)
  %9 = load i32, ptr %2, align 4, !tbaa !3
  %10 = sitofp i32 %9 to float
  store float %10, ptr @slamch_.base, align 4, !tbaa !7
  %11 = load i32, ptr %6, align 4, !tbaa !3
  %12 = sitofp i32 %11 to float
  store float %12, ptr @slamch_.t, align 4, !tbaa !7
  %13 = load i32, ptr %5, align 4, !tbaa !3
  %.not = icmp eq i32 %13, 0
  %.not.i26 = icmp eq i32 %11, 1
  br i1 %.not, label %26, label %14

14:                                               ; preds = %7
  store float 1.000000e+00, ptr @slamch_.rnd, align 4, !tbaa !7
  br i1 %.not.i26, label %spow_ui.exit, label %15

15:                                               ; preds = %14
  %16 = sub nsw i32 1, %11
  %17 = icmp sgt i32 %11, 1
  %18 = fdiv float 1.000000e+00, %10
  %.013.i = select i1 %17, float %18, float %10
  %.012.i = tail call i32 @llvm.abs.i32(i32 range(i32 -2147483647, -2147483648) %16, i1 true)
  %19 = zext nneg i32 %.012.i to i64
  %20 = and i64 %19, 1
  %.not1719.i = icmp eq i64 %20, 0
  %spec.select20.i = select i1 %.not1719.i, float 1.000000e+00, float %.013.i
  %.not1821.i = icmp samesign ult i32 %.012.i, 2
  br i1 %.not1821.i, label %spow_ui.exit, label %.lr.ph.i

.lr.ph.i:                                         ; preds = %15, %.lr.ph.i
  %spec.select24.i = phi float [ %spec.select.i, %.lr.ph.i ], [ %spec.select20.i, %15 ]
  %.023.i = phi i64 [ %21, %.lr.ph.i ], [ %19, %15 ]
  %.11422.i = phi float [ %22, %.lr.ph.i ], [ %.013.i, %15 ]
  %21 = lshr i64 %.023.i, 1
  %22 = fmul float %.11422.i, %.11422.i
  %23 = and i64 %.023.i, 2
  %.not17.i = icmp eq i64 %23, 0
  %24 = fmul float %spec.select24.i, %22
  %spec.select.i = select i1 %.not17.i, float %spec.select24.i, float %24
  %.not18.i = icmp samesign ult i64 %.023.i, 4
  br i1 %.not18.i, label %spow_ui.exit, label %.lr.ph.i

spow_ui.exit:                                     ; preds = %.lr.ph.i, %14, %15
  %.011.i = phi float [ 1.000000e+00, %14 ], [ %spec.select20.i, %15 ], [ %spec.select.i, %.lr.ph.i ]
  %25 = fmul float %.011.i, 5.000000e-01
  br label %spow_ui.exit40

26:                                               ; preds = %7
  store float 0.000000e+00, ptr @slamch_.rnd, align 4, !tbaa !7
  br i1 %.not.i26, label %spow_ui.exit40, label %27

27:                                               ; preds = %26
  %28 = sub nsw i32 1, %11
  %29 = icmp sgt i32 %11, 1
  %30 = fdiv float 1.000000e+00, %10
  %.013.i27 = select i1 %29, float %30, float %10
  %.012.i28 = tail call i32 @llvm.abs.i32(i32 range(i32 -2147483647, -2147483648) %28, i1 true)
  %31 = zext nneg i32 %.012.i28 to i64
  %32 = and i64 %31, 1
  %.not1719.i29 = icmp eq i64 %32, 0
  %spec.select20.i30 = select i1 %.not1719.i29, float 1.000000e+00, float %.013.i27
  %.not1821.i31 = icmp samesign ult i32 %.012.i28, 2
  br i1 %.not1821.i31, label %spow_ui.exit40, label %.lr.ph.i32

.lr.ph.i32:                                       ; preds = %27, %.lr.ph.i32
  %spec.select24.i33 = phi float [ %spec.select.i37, %.lr.ph.i32 ], [ %spec.select20.i30, %27 ]
  %.023.i34 = phi i64 [ %33, %.lr.ph.i32 ], [ %31, %27 ]
  %.11422.i35 = phi float [ %34, %.lr.ph.i32 ], [ %.013.i27, %27 ]
  %33 = lshr i64 %.023.i34, 1
  %34 = fmul float %.11422.i35, %.11422.i35
  %35 = and i64 %.023.i34, 2
  %.not17.i36 = icmp eq i64 %35, 0
  %36 = fmul float %spec.select24.i33, %34
  %spec.select.i37 = select i1 %.not17.i36, float %spec.select24.i33, float %36
  %.not18.i38 = icmp samesign ult i64 %.023.i34, 4
  br i1 %.not18.i38, label %spow_ui.exit40, label %.lr.ph.i32

spow_ui.exit40:                                   ; preds = %.lr.ph.i32, %27, %26, %spow_ui.exit
  %storemerge = phi float [ %25, %spow_ui.exit ], [ 1.000000e+00, %26 ], [ %spec.select20.i30, %27 ], [ %spec.select.i37, %.lr.ph.i32 ]
  store float %storemerge, ptr @slamch_.eps, align 4, !tbaa !7
  %37 = fmul float %storemerge, %10
  store float %37, ptr @slamch_.prec, align 4, !tbaa !7
  %38 = load i32, ptr %3, align 4, !tbaa !3
  %39 = sitofp i32 %38 to float
  store float %39, ptr @slamch_.emin, align 4, !tbaa !7
  %40 = load i32, ptr %4, align 4, !tbaa !3
  %41 = sitofp i32 %40 to float
  store float %41, ptr @slamch_.emax, align 4, !tbaa !7
  %42 = load float, ptr @slamch_.rmin, align 4, !tbaa !7
  store float %42, ptr @slamch_.sfmin, align 4, !tbaa !7
  %43 = load float, ptr @slamch_.rmax, align 4, !tbaa !7
  %44 = fdiv float 1.000000e+00, %43
  %45 = fcmp ult float %44, %42
  br i1 %45, label %49, label %46

46:                                               ; preds = %spow_ui.exit40
  %47 = fadd float %storemerge, 1.000000e+00
  %48 = fmul float %47, %44
  store float %48, ptr @slamch_.sfmin, align 4, !tbaa !7
  br label %49

49:                                               ; preds = %spow_ui.exit40, %46, %1
  %50 = tail call i32 @lsame_(ptr noundef %0, ptr noundef nonnull @.str) #8
  %.not16 = icmp eq i32 %50, 0
  br i1 %.not16, label %53, label %51

51:                                               ; preds = %49
  %52 = load float, ptr @slamch_.eps, align 4, !tbaa !7
  br label %88

53:                                               ; preds = %49
  %54 = tail call i32 @lsame_(ptr noundef %0, ptr noundef nonnull @.str.1) #8
  %.not17 = icmp eq i32 %54, 0
  br i1 %.not17, label %57, label %55

55:                                               ; preds = %53
  %56 = load float, ptr @slamch_.sfmin, align 4, !tbaa !7
  br label %88

57:                                               ; preds = %53
  %58 = tail call i32 @lsame_(ptr noundef %0, ptr noundef nonnull @.str.2) #8
  %.not18 = icmp eq i32 %58, 0
  br i1 %.not18, label %61, label %59

59:                                               ; preds = %57
  %60 = load float, ptr @slamch_.base, align 4, !tbaa !7
  br label %88

61:                                               ; preds = %57
  %62 = tail call i32 @lsame_(ptr noundef %0, ptr noundef nonnull @.str.3) #8
  %.not19 = icmp eq i32 %62, 0
  br i1 %.not19, label %65, label %63

63:                                               ; preds = %61
  %64 = load float, ptr @slamch_.prec, align 4, !tbaa !7
  br label %88

65:                                               ; preds = %61
  %66 = tail call i32 @lsame_(ptr noundef %0, ptr noundef nonnull @.str.4) #8
  %.not20 = icmp eq i32 %66, 0
  br i1 %.not20, label %69, label %67

67:                                               ; preds = %65
  %68 = load float, ptr @slamch_.t, align 4, !tbaa !7
  br label %88

69:                                               ; preds = %65
  %70 = tail call i32 @lsame_(ptr noundef %0, ptr noundef nonnull @.str.5) #8
  %.not21 = icmp eq i32 %70, 0
  br i1 %.not21, label %73, label %71

71:                                               ; preds = %69
  %72 = load float, ptr @slamch_.rnd, align 4, !tbaa !7
  br label %88

73:                                               ; preds = %69
  %74 = tail call i32 @lsame_(ptr noundef %0, ptr noundef nonnull @.str.6) #8
  %.not22 = icmp eq i32 %74, 0
  br i1 %.not22, label %77, label %75

75:                                               ; preds = %73
  %76 = load float, ptr @slamch_.emin, align 4, !tbaa !7
  br label %88

77:                                               ; preds = %73
  %78 = tail call i32 @lsame_(ptr noundef %0, ptr noundef nonnull @.str.7) #8
  %.not23 = icmp eq i32 %78, 0
  br i1 %.not23, label %81, label %79

79:                                               ; preds = %77
  %80 = load float, ptr @slamch_.rmin, align 4, !tbaa !7
  br label %88

81:                                               ; preds = %77
  %82 = tail call i32 @lsame_(ptr noundef %0, ptr noundef nonnull @.str.8) #8
  %.not24 = icmp eq i32 %82, 0
  br i1 %.not24, label %85, label %83

83:                                               ; preds = %81
  %84 = load float, ptr @slamch_.emax, align 4, !tbaa !7
  br label %88

85:                                               ; preds = %81
  %86 = tail call i32 @lsame_(ptr noundef %0, ptr noundef nonnull @.str.9) #8
  %.not25 = icmp eq i32 %86, 0
  %87 = load float, ptr @slamch_.rmax, align 4
  %spec.select = select i1 %.not25, float undef, float %87
  br label %88

88:                                               ; preds = %85, %55, %63, %71, %79, %83, %75, %67, %59, %51
  %.0 = phi float [ %52, %51 ], [ %56, %55 ], [ %60, %59 ], [ %64, %63 ], [ %68, %67 ], [ %72, %71 ], [ %76, %75 ], [ %80, %79 ], [ %84, %83 ], [ %spec.select, %85 ]
  store i1 true, ptr @slamch_.first, align 4
  call void @llvm.lifetime.end.p0(i64 4, ptr nonnull %6) #8
  call void @llvm.lifetime.end.p0(i64 4, ptr nonnull %5) #8
  call void @llvm.lifetime.end.p0(i64 4, ptr nonnull %4) #8
  call void @llvm.lifetime.end.p0(i64 4, ptr nonnull %3) #8
  call void @llvm.lifetime.end.p0(i64 4, ptr nonnull %2) #8
  ret float %.0
}